; ModuleID = 'source-C-CXX/30/1450.c'
source_filename = "source-C-CXX/30/1450.c"
target datalayout = "e-m:e-p270:32:32-p271:32:32-p272:64:64-i64:64-f80:128-n8:16:32:64-S128"
target triple = "x86_64-pc-linux-gnu"

%struct.student = type { [200 x i8], %struct.student* }

@.str = private unnamed_addr constant [4 x i8] c"end\00", align 1
@.str.2 = private unnamed_addr constant [3 x i8] c"%s\00", align 1

; Function Attrs: nounwind sspstrong uwtable
define dso_local %struct.student* @creat() local_unnamed_addr #0 {
  %1 = tail call noalias align 16 dereferenceable_or_null(208) i8* @malloc(i64 208) #6
  %2 = bitcast i8* %1 to %struct.student*
  %3 = getelementptr inbounds %struct.student, %struct.student* %2, i64 0, i32 0, i64 0
  %4 = tail call i32 (i8*, ...) bitcast (i32 (...)* @gets to i32 (i8*, ...)*)(i8* %3) #6
  %5 = tail call i32 @strcmp(i8* noundef nonnull dereferenceable(1) %3, i8* noundef nonnull dereferenceable(4) getelementptr inbounds ([4 x i8], [4 x i8]* @.str, i64 0, i64 0)) #7
  %6 = icmp eq i32 %5, 0
  br i1 %6, label %24, label %7

7:                                                ; preds = %0
  %8 = tail call noalias align 16 dereferenceable_or_null(208) i8* @malloc(i64 208) #6
  %9 = bitcast i8* %8 to %struct.student*
  %10 = getelementptr inbounds %struct.student, %struct.student* %9, i64 0, i32 0, i64 0
  %11 = tail call i32 (i8*, ...) bitcast (i32 (...)* @gets to i32 (i8*, ...)*)(i8* %10) #6
  %12 = tail call i32 @strcmp(i8* noundef nonnull dereferenceable(1) %10, i8* noundef nonnull dereferenceable(4) getelementptr inbounds ([4 x i8], [4 x i8]* @.str, i64 0, i64 0)) #7
  %13 = icmp eq i32 %12, 0
  br i1 %13, label %24, label %14

14:                                               ; preds = %7, %14
  %15 = phi %struct.student* [ %16, %14 ], [ %2, %7 ]
  %16 = phi %struct.student* [ %19, %14 ], [ %9, %7 ]
  %17 = getelementptr inbounds %struct.student, %struct.student* %15, i64 0, i32 1
  store %struct.student* %16, %struct.student** %17, align 8, !tbaa !5
  %18 = tail call noalias align 16 dereferenceable_or_null(208) i8* @malloc(i64 208) #6
  %19 = bitcast i8* %18 to %struct.student*
  %20 = getelementptr inbounds %struct.student, %struct.student* %19, i64 0, i32 0, i64 0
  %21 = tail call i32 (i8*, ...) bitcast (i32 (...)* @gets to i32 (i8*, ...)*)(i8* %20) #6
  %22 = tail call i32 @strcmp(i8* noundef nonnull dereferenceable(1) %20, i8* noundef nonnull dereferenceable(4) getelementptr inbounds ([4 x i8], [4 x i8]* @.str, i64 0, i64 0)) #7
  %23 = icmp eq i32 %22, 0
  br i1 %23, label %24, label %14, !llvm.loop !10

24:                                               ; preds = %14, %7, %0
  %25 = phi %struct.student* [ %2, %0 ], [ %2, %7 ], [ %16, %14 ]
  %26 = phi %struct.student* [ null, %0 ], [ %2, %7 ], [ %2, %14 ]
  %27 = getelementptr inbounds %struct.student, %struct.student* %25, i64 0, i32 1
  store %struct.student* null, %struct.student** %27, align 8, !tbaa !5
  ret %struct.student* %26
}

; Function Attrs: inaccessiblememonly mustprogress nofree nounwind willreturn
declare noalias noundef align 16 i8* @malloc(i64 noundef) local_unnamed_addr #1

declare i32 @gets(...) local_unnamed_addr #2

; Function Attrs: argmemonly mustprogress nofree nounwind readonly willreturn
declare i32 @strcmp(i8* nocapture, i8* nocapture) local_unnamed_addr #3

; Function Attrs: nounwind sspstrong uwtable
define dso_local void @main() local_unnamed_addr #0 {
  %1 = tail call %struct.student* @creat()
  %2 = getelementptr inbounds %struct.student, %struct.student* %1, i64 0, i32 1
  %3 = load %struct.student*, %struct.student** %2, align 8, !tbaa !5
  br label %4

4:                                                ; preds = %21, %0
  %5 = phi %struct.student* [ %3, %0 ], [ %22, %21 ]
  %6 = phi %struct.student* [ %1, %0 ], [ %23, %21 ]
  %7 = phi %struct.student* [ undef, %0 ], [ %10, %21 ]
  %8 = icmp eq %struct.student* %5, null
  %9 = select i1 %8, %struct.student* %6, %struct.student* %5
  %10 = select i1 %8, %struct.student* %7, %struct.student* %6
  %11 = getelementptr inbounds %struct.student, %struct.student* %9, i64 0, i32 1
  %12 = load %struct.student*, %struct.student** %11, align 8, !tbaa !5
  %13 = icmp ne %struct.student* %12, null
  %14 = icmp eq %struct.student* %10, %1
  %15 = select i1 %13, i1 true, i1 %14
  br i1 %15, label %21, label %16

16:                                               ; preds = %4
  %17 = getelementptr inbounds %struct.student, %struct.student* %9, i64 0, i32 0, i64 0
  %18 = tail call i32 @puts(i8* nonnull dereferenceable(1) %17)
  %19 = getelementptr inbounds %struct.student, %struct.student* %10, i64 0, i32 1
  store %struct.student* null, %struct.student** %19, align 8, !tbaa !5
  %20 = load %struct.student*, %struct.student** %2, align 8, !tbaa !5
  br label %21

21:                                               ; preds = %16, %4
  %22 = phi %struct.student* [ %20, %16 ], [ %12, %4 ]
  %23 = phi %struct.student* [ %1, %16 ], [ %9, %4 ]
  %24 = icmp eq %struct.student* %22, null
  %25 = select i1 %24, i1 %14, i1 false
  br i1 %25, label %26, label %4

26:                                               ; preds = %21
  %27 = getelementptr inbounds %struct.student, %struct.student* %23, i64 0, i32 0, i64 0
  %28 = tail call i32 @puts(i8* nonnull dereferenceable(1) %27)
  %29 = getelementptr inbounds %struct.student, %struct.student* %1, i64 0, i32 0, i64 0
  %30 = tail call i32 (i8*, ...) @printf(i8* nonnull dereferenceable(1) getelementptr inbounds ([3 x i8], [3 x i8]* @.str.2, i64 0, i64 0), i8* %29)
  ret void
}

; Function Attrs: nofree nounwind
declare noundef i32 @printf(i8* nocapture noundef readonly, ...) local_unnamed_addr #4

; Function Attrs: nofree nounwind
declare noundef i32 @puts(i8* nocapture noundef readonly) local_unnamed_addr #5


!llvm.module.flags = !{!0, !1, !2, !3}
!llvm.ident = !{!4}

!0 = !{i32 1, !"wchar_size", i32 4}
!1 = !{i32 7, !"PIC Level", i32 2}
!2 = !{i32 7, !"PIE Level", i32 2}
!3 = !{i32 7, !"uwtable", i32 1}
!4 = !{!"clang version 13.0.0"}
!5 = !{!6, !9, i64 200}
!6 = !{!"student", !7, i64 0, !9, i64 200}
!7 = !{!"omnipotent char", !8, i64 0}
!8 = !{!"Simple C/C++ TBAA"}
!9 = !{!"any pointer", !7, i64 0}
!10 = distinct !{!10, !11, !12}
!11 = !{!"llvm.loop.mustprogress"}
!12 = !{!"llvm.loop.peeled.count", i32 1}
